target datalayout = "e-m:e-p270:32:32-p271:32:32-p272:64:64-i64:64-f80:128-n8:16:32:64-S128"
target triple = "x86_64-pc-linux-gnu"

@.str = private unnamed_addr constant [3 x i8] c"%d\00", align 1
@.str.1 = private unnamed_addr constant [18 x i8] c"%s %d %d %c %c %d\00", align 1
@.str.2 = private unnamed_addr constant [10 x i8] c"%s\0A%d\0A%d\0A\00", align 1

; Function Attrs: noinline nounwind uwtable
define dso_local void @main() #0 {
  %1 = alloca [100 x [20 x i8]], align 16
  %2 = alloca [100 x i8], align 16
  %3 = alloca [100 x i8], align 16
  %4 = alloca i32, align 4
  %5 = alloca i32, align 4
  %6 = alloca [100 x i32], align 16
  %7 = alloca [100 x i32], align 16
  %8 = alloca [100 x i32], align 16
  %9 = alloca [100 x i32], align 16
  %10 = alloca i32, align 4
  %11 = alloca i32, align 4
  %12 = alloca i32, align 4
  %13 = alloca i32, align 4
  %14 = bitcast [100 x i32]* %9 to i8*
  call void @llvm.memset.p0i8.i64(i8* align 16 %14, i8 0, i64 400, i1 false)
  store i32 0, i32* %10, align 4
  store i32 0, i32* %11, align 4
  %15 = call i32 (i8*, ...) @__isoc99_scanf(i8* getelementptr inbounds ([3 x i8], [3 x i8]* @.str, i64 0, i64 0), i32* %13)
  store i32 0, i32* %4, align 4
  br label %16

16:                                               ; preds = %41, %0
  %17 = load i32, i32* %4, align 4
  %18 = load i32, i32* %13, align 4
  %19 = icmp slt i32 %17, %18
  br i1 %19, label %20, label %44

20:                                               ; preds = %16
  %21 = load i32, i32* %4, align 4
  %22 = sext i32 %21 to i64
  %23 = getelementptr inbounds [100 x [20 x i8]], [100 x [20 x i8]]* %1, i64 0, i64 %22
  %24 = getelementptr inbounds [20 x i8], [20 x i8]* %23, i64 0, i64 0
  %25 = load i32, i32* %4, align 4
  %26 = sext i32 %25 to i64
  %27 = getelementptr inbounds [100 x i32], [100 x i32]* %6, i64 0, i64 %26
  %28 = load i32, i32* %4, align 4
  %29 = sext i32 %28 to i64
  %30 = getelementptr inbounds [100 x i32], [100 x i32]* %7, i64 0, i64 %29
  %31 = load i32, i32* %4, align 4
  %32 = sext i32 %31 to i64
  %33 = getelementptr inbounds [100 x i8], [100 x i8]* %2, i64 0, i64 %32
  %34 = load i32, i32* %4, align 4
  %35 = sext i32 %34 to i64
  %36 = getelementptr inbounds [100 x i8], [100 x i8]* %3, i64 0, i64 %35
  %37 = load i32, i32* %4, align 4
  %38 = sext i32 %37 to i64
  %39 = getelementptr inbounds [100 x i32], [100 x i32]* %8, i64 0, i64 %38
  %40 = call i32 (i8*, ...) @__isoc99_scanf(i8* getelementptr inbounds ([18 x i8], [18 x i8]* @.str.1, i64 0, i64 0), i8* %24, i32* %27, i32* %30, i8* %33, i8* %36, i32* %39)
  br label %41

41:                                               ; preds = %20
  %42 = load i32, i32* %4, align 4
  %43 = add nsw i32 %42, 1
  store i32 %43, i32* %4, align 4
  br label %16

44:                                               ; preds = %16
  store i32 0, i32* %4, align 4
  br label %45

45:                                               ; preds = %151, %44
  %46 = load i32, i32* %4, align 4
  %47 = load i32, i32* %13, align 4
  %48 = icmp slt i32 %46, %47
  br i1 %48, label %49, label %154

49:                                               ; preds = %45
  %50 = load i32, i32* %4, align 4
  %51 = sext i32 %50 to i64
  %52 = getelementptr inbounds [100 x i32], [100 x i32]* %6, i64 0, i64 %51
  %53 = load i32, i32* %52, align 4
  %54 = icmp sgt i32 %53, 80
  br i1 %54, label %55, label %70

55:                                               ; preds = %49
  %56 = load i32, i32* %4, align 4
  %57 = sext i32 %56 to i64
  %58 = getelementptr inbounds [100 x i32], [100 x i32]* %8, i64 0, i64 %57
  %59 = load i32, i32* %58, align 4
  %60 = icmp sge i32 %59, 1
  br i1 %60, label %61, label %70

61:                                               ; preds = %55
  %62 = load i32, i32* %4, align 4
  %63 = sext i32 %62 to i64
  %64 = getelementptr inbounds [100 x i32], [100 x i32]* %9, i64 0, i64 %63
  %65 = load i32, i32* %64, align 4
  %66 = add nsw i32 %65, 8000
  %67 = load i32, i32* %4, align 4
  %68 = sext i32 %67 to i64
  %69 = getelementptr inbounds [100 x i32], [100 x i32]* %9, i64 0, i64 %68
  store i32 %66, i32* %69, align 4
  br label %70

70:                                               ; preds = %61, %55, %49
  %71 = load i32, i32* %4, align 4
  %72 = sext i32 %71 to i64
  %73 = getelementptr inbounds [100 x i32], [100 x i32]* %6, i64 0, i64 %72
  %74 = load i32, i32* %73, align 4
  %75 = icmp sgt i32 %74, 85
  br i1 %75, label %76, label %91

76:                                               ; preds = %70
  %77 = load i32, i32* %4, align 4
  %78 = sext i32 %77 to i64
  %79 = getelementptr inbounds [100 x i32], [100 x i32]* %7, i64 0, i64 %78
  %80 = load i32, i32* %79, align 4
  %81 = icmp sgt i32 %80, 80
  br i1 %81, label %82, label %91

82:                                               ; preds = %76
  %83 = load i32, i32* %4, align 4
  %84 = sext i32 %83 to i64
  %85 = getelementptr inbounds [100 x i32], [100 x i32]* %9, i64 0, i64 %84
  %86 = load i32, i32* %85, align 4
  %87 = add nsw i32 %86, 4000
  %88 = load i32, i32* %4, align 4
  %89 = sext i32 %88 to i64
  %90 = getelementptr inbounds [100 x i32], [100 x i32]* %9, i64 0, i64 %89
  store i32 %87, i32* %90, align 4
  br label %91

91:                                               ; preds = %82, %76, %70
  %92 = load i32, i32* %4, align 4
  %93 = sext i32 %92 to i64
  %94 = getelementptr inbounds [100 x i32], [100 x i32]* %6, i64 0, i64 %93
  %95 = load i32, i32* %94, align 4
  %96 = icmp sgt i32 %95, 90
  br i1 %96, label %97, label %106

97:                                               ; preds = %91
  %98 = load i32, i32* %4, align 4
  %99 = sext i32 %98 to i64
  %100 = getelementptr inbounds [100 x i32], [100 x i32]* %9, i64 0, i64 %99
  %101 = load i32, i32* %100, align 4
  %102 = add nsw i32 %101, 2000
  %103 = load i32, i32* %4, align 4
  %104 = sext i32 %103 to i64
  %105 = getelementptr inbounds [100 x i32], [100 x i32]* %9, i64 0, i64 %104
  store i32 %102, i32* %105, align 4
  br label %106

106:                                              ; preds = %97, %91
  %107 = load i32, i32* %4, align 4
  %108 = sext i32 %107 to i64
  %109 = getelementptr inbounds [100 x i32], [100 x i32]* %6, i64 0, i64 %108
  %110 = load i32, i32* %109, align 4
  %111 = icmp sgt i32 %110, 85
  br i1 %111, label %112, label %128

112:                                              ; preds = %106
  %113 = load i32, i32* %4, align 4
  %114 = sext i32 %113 to i64
  %115 = getelementptr inbounds [100 x i8], [100 x i8]* %3, i64 0, i64 %114
  %116 = load i8, i8* %115, align 1
  %117 = sext i8 %116 to i32
  %118 = icmp eq i32 %117, 89
  br i1 %118, label %119, label %128

119:                                              ; preds = %112
  %120 = load i32, i32* %4, align 4
  %121 = sext i32 %120 to i64
  %122 = getelementptr inbounds [100 x i32], [100 x i32]* %9, i64 0, i64 %121
  %123 = load i32, i32* %122, align 4
  %124 = add nsw i32 %123, 1000
  %125 = load i32, i32* %4, align 4
  %126 = sext i32 %125 to i64
  %127 = getelementptr inbounds [100 x i32], [100 x i32]* %9, i64 0, i64 %126
  store i32 %124, i32* %127, align 4
  br label %128

128:                                              ; preds = %119, %112, %106
  %129 = load i32, i32* %4, align 4
  %130 = sext i32 %129 to i64
  %131 = getelementptr inbounds [100 x i32], [100 x i32]* %7, i64 0, i64 %130
  %132 = load i32, i32* %131, align 4
  %133 = icmp sgt i32 %132, 80
  br i1 %133, label %134, label %150

134:                                              ; preds = %128
  %135 = load i32, i32* %4, align 4
  %136 = sext i32 %135 to i64
  %137 = getelementptr inbounds [100 x i8], [100 x i8]* %2, i64 0, i64 %136
  %138 = load i8, i8* %137, align 1
  %139 = sext i8 %138 to i32
  %140 = icmp eq i32 %139, 89
  br i1 %140, label %141, label %150

141:                                              ; preds = %134
  %142 = load i32, i32* %4, align 4
  %143 = sext i32 %142 to i64
  %144 = getelementptr inbounds [100 x i32], [100 x i32]* %9, i64 0, i64 %143
  %145 = load i32, i32* %144, align 4
  %146 = add nsw i32 %145, 850
  %147 = load i32, i32* %4, align 4
  %148 = sext i32 %147 to i64
  %149 = getelementptr inbounds [100 x i32], [100 x i32]* %9, i64 0, i64 %148
  store i32 %146, i32* %149, align 4
  br label %150

150:                                              ; preds = %141, %134, %128
  br label %151

151:                                              ; preds = %150
  %152 = load i32, i32* %4, align 4
  %153 = add nsw i32 %152, 1
  store i32 %153, i32* %4, align 4
  br label %45

154:                                              ; preds = %45
  store i32 0, i32* %12, align 4
  store i32 0, i32* %4, align 4
  br label %155

155:                                              ; preds = %178, %154
  %156 = load i32, i32* %4, align 4
  %157 = load i32, i32* %13, align 4
  %158 = icmp slt i32 %156, %157
  br i1 %158, label %159, label %181

159:                                              ; preds = %155
  %160 = load i32, i32* %12, align 4
  %161 = load i32, i32* %4, align 4
  %162 = sext i32 %161 to i64
  %163 = getelementptr inbounds [100 x i32], [100 x i32]* %9, i64 0, i64 %162
  %164 = load i32, i32* %163, align 4
  %165 = icmp slt i32 %160, %164
  br i1 %165, label %166, label %171

166:                                              ; preds = %159
  %167 = load i32, i32* %4, align 4
  %168 = sext i32 %167 to i64
  %169 = getelementptr inbounds [100 x i32], [100 x i32]* %9, i64 0, i64 %168
  %170 = load i32, i32* %169, align 4
  store i32 %170, i32* %12, align 4
  br label %171

171:                                              ; preds = %166, %159
  %172 = load i32, i32* %11, align 4
  %173 = load i32, i32* %4, align 4
  %174 = sext i32 %173 to i64
  %175 = getelementptr inbounds [100 x i32], [100 x i32]* %9, i64 0, i64 %174
  %176 = load i32, i32* %175, align 4
  %177 = add nsw i32 %172, %176
  store i32 %177, i32* %11, align 4
  br label %178

178:                                              ; preds = %171
  %179 = load i32, i32* %4, align 4
  %180 = add nsw i32 %179, 1
  store i32 %180, i32* %4, align 4
  br label %155

181:                                              ; preds = %155
  store i32 0, i32* %4, align 4
  br label %182

182:                                              ; preds = %202, %181
  %183 = load i32, i32* %4, align 4
  %184 = load i32, i32* %13, align 4
  %185 = icmp slt i32 %183, %184
  br i1 %185, label %186, label %205

186:                                              ; preds = %182
  %187 = load i32, i32* %12, align 4
  %188 = load i32, i32* %4, align 4
  %189 = sext i32 %188 to i64
  %190 = getelementptr inbounds [100 x i32], [100 x i32]* %9, i64 0, i64 %189
  %191 = load i32, i32* %190, align 4
  %192 = icmp eq i32 %187, %191
  br i1 %192, label %193, label %201

193:                                              ; preds = %186
  %194 = load i32, i32* %4, align 4
  %195 = sext i32 %194 to i64
  %196 = getelementptr inbounds [100 x [20 x i8]], [100 x [20 x i8]]* %1, i64 0, i64 %195
  %197 = getelementptr inbounds [20 x i8], [20 x i8]* %196, i64 0, i64 0
  %198 = load i32, i32* %12, align 4
  %199 = load i32, i32* %11, align 4
  %200 = call i32 (i8*, ...) @printf(i8* getelementptr inbounds ([10 x i8], [10 x i8]* @.str.2, i64 0, i64 0), i8* %197, i32 %198, i32 %199)
  br label %205

201:                                              ; preds = %186
  br label %202

202:                                              ; preds = %201
  %203 = load i32, i32* %4, align 4
  %204 = add nsw i32 %203, 1
  store i32 %204, i32* %4, align 4
  br label %182

205:                                              ; preds = %193, %182
  ret void
}